target datalayout = "e-m:e-p270:32:32-p271:32:32-p272:64:64-i64:64-i128:128-f80:128-n8:16:32:64-S128"
target triple = "x86_64-pc-linux-gnu"

@_ZN6icu_77L13gTimeUnitYearE = internal constant [5 x i8] c"year\00", align 1
@_ZN6icu_77L14gTimeUnitMonthE = internal constant [6 x i8] c"month\00", align 1
@_ZN6icu_77L12gTimeUnitDayE = internal constant [4 x i8] c"day\00", align 1
@_ZN6icu_77L13gTimeUnitWeekE = internal constant [5 x i8] c"week\00", align 1
@_ZN6icu_77L13gTimeUnitHourE = internal constant [5 x i8] c"hour\00", align 1
@_ZN6icu_77L15gTimeUnitMinuteE = internal constant [7 x i8] c"minute\00", align 1
@_ZN6icu_77L15gTimeUnitSecondE = internal constant [7 x i8] c"second\00", align 1

; Function Attrs: inlinehint mustprogress nounwind uwtable
define internal noundef signext i8 @_ZL9U_FAILURE10UErrorCode(i32 noundef %0) #2 {
  %2 = alloca i32, align 4
  store i32 %0, ptr %2, align 4, !tbaa !15
  %3 = load i32, ptr %2, align 4, !tbaa !15
  %4 = icmp sgt i32 %3, 0
  %5 = zext i1 %4 to i8
  ret i8 %5
}

; Function Attrs: mustprogress uwtable
define noundef ptr @_ZN6icu_7714TimeUnitFormat15getTimeUnitNameENS_8TimeUnit15UTimeUnitFieldsER10UErrorCode(i32 noundef %0, ptr noundef nonnull align 4 dereferenceable(4) %1) #1 align 2 {
  %3 = alloca ptr, align 8
  %4 = alloca i32, align 4
  %5 = alloca ptr, align 8
  store i32 %0, ptr %4, align 4, !tbaa !29
  store ptr %1, ptr %5, align 8, !tbaa !22
  %6 = load ptr, ptr %5, align 8, !tbaa !22
  %7 = load i32, ptr %6, align 4, !tbaa !15
  %8 = call noundef signext i8 @_ZL9U_FAILURE10UErrorCode(i32 noundef %7)
  %9 = icmp ne i8 %8, 0
  br i1 %9, label %10, label %11

10:                                               ; preds = %2
  store ptr null, ptr %3, align 8
  br label %22

11:                                               ; preds = %2
  %12 = load i32, ptr %4, align 4, !tbaa !29
  switch i32 %12, label %20 [
    i32 0, label %13
    i32 1, label %14
    i32 2, label %15
    i32 3, label %16
    i32 4, label %17
    i32 5, label %18
    i32 6, label %19
  ]

13:                                               ; preds = %11
  store ptr @_ZN6icu_77L13gTimeUnitYearE, ptr %3, align 8
  br label %22

14:                                               ; preds = %11
  store ptr @_ZN6icu_77L14gTimeUnitMonthE, ptr %3, align 8
  br label %22

15:                                               ; preds = %11
  store ptr @_ZN6icu_77L12gTimeUnitDayE, ptr %3, align 8
  br label %22

16:                                               ; preds = %11
  store ptr @_ZN6icu_77L13gTimeUnitWeekE, ptr %3, align 8
  br label %22

17:                                               ; preds = %11
  store ptr @_ZN6icu_77L13gTimeUnitHourE, ptr %3, align 8
  br label %22

18:                                               ; preds = %11
  store ptr @_ZN6icu_77L15gTimeUnitMinuteE, ptr %3, align 8
  br label %22

19:                                               ; preds = %11
  store ptr @_ZN6icu_77L15gTimeUnitSecondE, ptr %3, align 8
  br label %22

20:                                               ; preds = %11
  %21 = load ptr, ptr %5, align 8, !tbaa !22
  store i32 1, ptr %21, align 4, !tbaa !15
  store ptr null, ptr %3, align 8
  br label %22

22:                                               ; preds = %20, %19, %18, %17, %16, %15, %14, %13, %10
  %23 = load ptr, ptr %3, align 8
  ret ptr %23
}