; Function Attrs: mustprogress nofree norecurse nosync nounwind willreturn memory(argmem: readwrite) uwtable
define noundef ptr @_ZN6icu_7714TimeUnitFormat15getTimeUnitNameENS_8TimeUnit15UTimeUnitFieldsER10UErrorCode(i32 noundef %0, ptr noundef nonnull align 4 captures(none) dereferenceable(4) %1) local_unnamed_addr #12 align 2 {
  %3 = load i32, ptr %1, align 4, !tbaa !13
  %4 = icmp slt i32 %3, 1
  br i1 %4, label %5, label %9

5:                                                ; preds = %2
  %6 = icmp ult i32 %0, 7
  br i1 %6, label %switch.lookup, label %7

7:                                                ; preds = %5
  store i32 1, ptr %1, align 4, !tbaa !13
  br label %9

switch.lookup:                                    ; preds = %5
  %8 = zext nneg i32 %0 to i64
  %switch.gep = getelementptr inbounds nuw [7 x ptr], ptr @switch.table._ZN6icu_7714TimeUnitFormat15getTimeUnitNameENS_8TimeUnit15UTimeUnitFieldsER10UErrorCode, i64 0, i64 %8
  %switch.load = load ptr, ptr %switch.gep, align 8
  br label %9

9:                                                ; preds = %switch.lookup, %2, %7
  %.0 = phi ptr [ null, %7 ], [ null, %2 ], [ %switch.load, %switch.lookup ]
  ret ptr %.0
}